; Function Attrs: mustprogress nounwind willreturn memory(argmem: readwrite, inaccessiblemem: readwrite) uwtable
define noundef i32 @cuddStCountfree(ptr readnone captures(none) %0, ptr noundef %1, ptr readnone captures(none) %2) #7 {
  %.not = icmp eq ptr %1, null
  br i1 %.not, label %5, label %4

4:                                                ; preds = %3
  tail call void @free(ptr noundef nonnull %1) #23
  br label %5

5:                                                ; preds = %3, %4
  ret i32 0
}